target datalayout = "e-m:e-p270:32:32-p271:32:32-p272:64:64-i64:64-i128:128-f80:128-n8:16:32:64-S128"
target triple = "x86_64-pc-linux-gnu"

%"struct.duckdb_miniz::mz_zip_archive" = type { i64, i64, i32, i32, i32, i32, i64, ptr, ptr, ptr, ptr, ptr, ptr, ptr, ptr, ptr }
%"struct.duckdb_miniz::mz_zip_internal_state_tag" = type { %"struct.duckdb_miniz::mz_zip_array", %"struct.duckdb_miniz::mz_zip_array", %"struct.duckdb_miniz::mz_zip_array", i32, i32, i32, ptr, i64, ptr, i64, i64 }
%"struct.duckdb_miniz::mz_zip_array" = type { ptr, i64, i64, i32 }

; Function Attrs: alwaysinline mustprogress uwtable
define internal void @_ZN12duckdb_minizL18mz_zip_array_clearEPNS_14mz_zip_archiveEPNS_12mz_zip_arrayE(ptr noundef %0, ptr noundef %1) #9 {
  %3 = alloca ptr, align 8
  %4 = alloca ptr, align 8
  store ptr %0, ptr %3, align 8, !tbaa !19
  store ptr %1, ptr %4, align 8, !tbaa !19
  %5 = load ptr, ptr %3, align 8, !tbaa !19
  %6 = getelementptr inbounds nuw %"struct.duckdb_miniz::mz_zip_archive", ptr %5, i32 0, i32 8
  %7 = load ptr, ptr %6, align 8, !tbaa !234
  %8 = load ptr, ptr %3, align 8, !tbaa !19
  %9 = getelementptr inbounds nuw %"struct.duckdb_miniz::mz_zip_archive", ptr %8, i32 0, i32 10
  %10 = load ptr, ptr %9, align 8, !tbaa !238
  %11 = load ptr, ptr %4, align 8, !tbaa !19
  %12 = getelementptr inbounds nuw %"struct.duckdb_miniz::mz_zip_array", ptr %11, i32 0, i32 0
  %13 = load ptr, ptr %12, align 8, !tbaa !305
  call void %7(ptr noundef %10, ptr noundef %13)
  %14 = load ptr, ptr %4, align 8, !tbaa !19
  call void @llvm.memset.p0.i64(ptr align 8 %14, i8 0, i64 32, i1 false)
  ret void
}

; Function Attrs: alwaysinline mustprogress nounwind uwtable
define internal noundef i32 @_ZN12duckdb_minizL16mz_zip_set_errorEPNS_14mz_zip_archiveENS_12mz_zip_errorE(ptr noundef %0, i32 noundef %1) #8 {
  %3 = alloca ptr, align 8
  %4 = alloca i32, align 4
  store ptr %0, ptr %3, align 8, !tbaa !19
  store i32 %1, ptr %4, align 4, !tbaa !242
  %5 = load ptr, ptr %3, align 8, !tbaa !19
  %6 = icmp ne ptr %5, null
  br i1 %6, label %7, label %11

7:                                                ; preds = %2
  %8 = load i32, ptr %4, align 4, !tbaa !242
  %9 = load ptr, ptr %3, align 8, !tbaa !19
  %10 = getelementptr inbounds nuw %"struct.duckdb_miniz::mz_zip_archive", ptr %9, i32 0, i32 5
  store i32 %8, ptr %10, align 4, !tbaa !236
  br label %11

11:                                               ; preds = %7, %2
  ret i32 0
}

; Function Attrs: mustprogress uwtable
define noundef i32 @_ZN12duckdb_miniz33mz_zip_writer_init_from_reader_v2EPNS_14mz_zip_archiveEPKcj(ptr noundef %0, ptr noundef %1, i32 noundef %2) #5 {
  %4 = alloca i32, align 4
  %5 = alloca ptr, align 8
  %6 = alloca ptr, align 8
  %7 = alloca i32, align 4
  %8 = alloca ptr, align 8
  %9 = alloca i32, align 4
  store ptr %0, ptr %5, align 8, !tbaa !19
  store ptr %1, ptr %6, align 8, !tbaa !7
  store i32 %2, ptr %7, align 4, !tbaa !10
  call void @llvm.lifetime.start.p0(i64 8, ptr %8) #11
  %10 = load ptr, ptr %5, align 8, !tbaa !19
  %11 = icmp ne ptr %10, null
  br i1 %11, label %12, label %22

12:                                               ; preds = %3
  %13 = load ptr, ptr %5, align 8, !tbaa !19
  %14 = getelementptr inbounds nuw %"struct.duckdb_miniz::mz_zip_archive", ptr %13, i32 0, i32 15
  %15 = load ptr, ptr %14, align 8, !tbaa !227
  %16 = icmp ne ptr %15, null
  br i1 %16, label %17, label %22

17:                                               ; preds = %12
  %18 = load ptr, ptr %5, align 8, !tbaa !19
  %19 = getelementptr inbounds nuw %"struct.duckdb_miniz::mz_zip_archive", ptr %18, i32 0, i32 3
  %20 = load i32, ptr %19, align 4, !tbaa !235
  %21 = icmp ne i32 %20, 1
  br i1 %21, label %22, label %25

22:                                               ; preds = %17, %12, %3
  %23 = load ptr, ptr %5, align 8, !tbaa !19
  %24 = call noundef i32 @_ZN12duckdb_minizL16mz_zip_set_errorEPNS_14mz_zip_archiveENS_12mz_zip_errorE(ptr noundef %23, i32 noundef 24)
  store i32 %24, ptr %4, align 4
  store i32 1, ptr %9, align 4
  br label %135

25:                                               ; preds = %17
  %26 = load i32, ptr %7, align 4, !tbaa !10
  %27 = and i32 %26, 16384
  %28 = icmp ne i32 %27, 0
  br i1 %28, label %29, label %40

29:                                               ; preds = %25
  %30 = load ptr, ptr %5, align 8, !tbaa !19
  %31 = getelementptr inbounds nuw %"struct.duckdb_miniz::mz_zip_archive", ptr %30, i32 0, i32 15
  %32 = load ptr, ptr %31, align 8, !tbaa !227
  %33 = getelementptr inbounds nuw %"struct.duckdb_miniz::mz_zip_internal_state_tag", ptr %32, i32 0, i32 4
  %34 = load i32, ptr %33, align 4, !tbaa !252
  %35 = icmp ne i32 %34, 0
  br i1 %35, label %39, label %36

36:                                               ; preds = %29
  %37 = load ptr, ptr %5, align 8, !tbaa !19
  %38 = call noundef i32 @_ZN12duckdb_minizL16mz_zip_set_errorEPNS_14mz_zip_archiveENS_12mz_zip_errorE(ptr noundef %37, i32 noundef 24)
  store i32 %38, ptr %4, align 4
  store i32 1, ptr %9, align 4
  br label %135

39:                                               ; preds = %29
  br label %40

40:                                               ; preds = %39, %25
  %41 = load ptr, ptr %5, align 8, !tbaa !19
  %42 = getelementptr inbounds nuw %"struct.duckdb_miniz::mz_zip_archive", ptr %41, i32 0, i32 15
  %43 = load ptr, ptr %42, align 8, !tbaa !227
  %44 = getelementptr inbounds nuw %"struct.duckdb_miniz::mz_zip_internal_state_tag", ptr %43, i32 0, i32 4
  %45 = load i32, ptr %44, align 4, !tbaa !252
  %46 = icmp ne i32 %45, 0
  br i1 %46, label %47, label %56

47:                                               ; preds = %40
  %48 = load ptr, ptr %5, align 8, !tbaa !19
  %49 = getelementptr inbounds nuw %"struct.duckdb_miniz::mz_zip_archive", ptr %48, i32 0, i32 2
  %50 = load i32, ptr %49, align 8, !tbaa !245
  %51 = icmp eq i32 %50, -1
  br i1 %51, label %52, label %55

52:                                               ; preds = %47
  %53 = load ptr, ptr %5, align 8, !tbaa !19
  %54 = call noundef i32 @_ZN12duckdb_minizL16mz_zip_set_errorEPNS_14mz_zip_archiveENS_12mz_zip_errorE(ptr noundef %53, i32 noundef 2)
  store i32 %54, ptr %4, align 4
  store i32 1, ptr %9, align 4
  br label %135

55:                                               ; preds = %47
  br label %75

56:                                               ; preds = %40
  %57 = load ptr, ptr %5, align 8, !tbaa !19
  %58 = getelementptr inbounds nuw %"struct.duckdb_miniz::mz_zip_archive", ptr %57, i32 0, i32 2
  %59 = load i32, ptr %58, align 8, !tbaa !245
  %60 = icmp eq i32 %59, 65535
  br i1 %60, label %61, label %64

61:                                               ; preds = %56
  %62 = load ptr, ptr %5, align 8, !tbaa !19
  %63 = call noundef i32 @_ZN12duckdb_minizL16mz_zip_set_errorEPNS_14mz_zip_archiveENS_12mz_zip_errorE(ptr noundef %62, i32 noundef 2)
  store i32 %63, ptr %4, align 4
  store i32 1, ptr %9, align 4
  br label %135

64:                                               ; preds = %56
  %65 = load ptr, ptr %5, align 8, !tbaa !19
  %66 = getelementptr inbounds nuw %"struct.duckdb_miniz::mz_zip_archive", ptr %65, i32 0, i32 0
  %67 = load i64, ptr %66, align 8, !tbaa !241
  %68 = add i64 %67, 46
  %69 = add i64 %68, 30
  %70 = icmp ugt i64 %69, 4294967295
  br i1 %70, label %71, label %74

71:                                               ; preds = %64
  %72 = load ptr, ptr %5, align 8, !tbaa !19
  %73 = call noundef i32 @_ZN12duckdb_minizL16mz_zip_set_errorEPNS_14mz_zip_archiveENS_12mz_zip_errorE(ptr noundef %72, i32 noundef 3)
  store i32 %73, ptr %4, align 4
  store i32 1, ptr %9, align 4
  br label %135

74:                                               ; preds = %64
  br label %75

75:                                               ; preds = %74, %55
  %76 = load ptr, ptr %5, align 8, !tbaa !19
  %77 = getelementptr inbounds nuw %"struct.duckdb_miniz::mz_zip_archive", ptr %76, i32 0, i32 15
  %78 = load ptr, ptr %77, align 8, !tbaa !227
  store ptr %78, ptr %8, align 8, !tbaa !237
  %79 = load ptr, ptr %8, align 8, !tbaa !237
  %80 = getelementptr inbounds nuw %"struct.duckdb_miniz::mz_zip_internal_state_tag", ptr %79, i32 0, i32 6
  %81 = load ptr, ptr %80, align 8, !tbaa !324
  %82 = icmp ne ptr %81, null
  br i1 %82, label %83, label %86

83:                                               ; preds = %75
  %84 = load ptr, ptr %5, align 8, !tbaa !19
  %85 = call noundef i32 @_ZN12duckdb_minizL16mz_zip_set_errorEPNS_14mz_zip_archiveENS_12mz_zip_errorE(ptr noundef %84, i32 noundef 24)
  store i32 %85, ptr %4, align 4
  store i32 1, ptr %9, align 4
  br label %135

86:                                               ; preds = %75
  %87 = load ptr, ptr %8, align 8, !tbaa !237
  %88 = getelementptr inbounds nuw %"struct.duckdb_miniz::mz_zip_internal_state_tag", ptr %87, i32 0, i32 8
  %89 = load ptr, ptr %88, align 8, !tbaa !261
  %90 = icmp ne ptr %89, null
  br i1 %90, label %91, label %110

91:                                               ; preds = %86
  %92 = load ptr, ptr %5, align 8, !tbaa !19
  %93 = getelementptr inbounds nuw %"struct.duckdb_miniz::mz_zip_archive", ptr %92, i32 0, i32 14
  %94 = load ptr, ptr %93, align 8, !tbaa !254
  %95 = load ptr, ptr %5, align 8, !tbaa !19
  %96 = icmp ne ptr %94, %95
  br i1 %96, label %97, label %100

97:                                               ; preds = %91
  %98 = load ptr, ptr %5, align 8, !tbaa !19
  %99 = call noundef i32 @_ZN12duckdb_minizL16mz_zip_set_errorEPNS_14mz_zip_archiveENS_12mz_zip_errorE(ptr noundef %98, i32 noundef 24)
  store i32 %99, ptr %4, align 4
  store i32 1, ptr %9, align 4
  br label %135

100:                                              ; preds = %91
  %101 = load ptr, ptr %8, align 8, !tbaa !237
  %102 = getelementptr inbounds nuw %"struct.duckdb_miniz::mz_zip_internal_state_tag", ptr %101, i32 0, i32 9
  %103 = load i64, ptr %102, align 8, !tbaa !262
  %104 = load ptr, ptr %8, align 8, !tbaa !237
  %105 = getelementptr inbounds nuw %"struct.duckdb_miniz::mz_zip_internal_state_tag", ptr %104, i32 0, i32 10
  store i64 %103, ptr %105, align 8, !tbaa !322
  %106 = load ptr, ptr %5, align 8, !tbaa !19
  %107 = getelementptr inbounds nuw %"struct.duckdb_miniz::mz_zip_archive", ptr %106, i32 0, i32 12
  store ptr @_ZN12duckdb_minizL22mz_zip_heap_write_funcEPvmPKvm, ptr %107, align 8, !tbaa !320
  %108 = load ptr, ptr %5, align 8, !tbaa !19
  %109 = getelementptr inbounds nuw %"struct.duckdb_miniz::mz_zip_archive", ptr %108, i32 0, i32 13
  store ptr null, ptr %109, align 8, !tbaa !260
  br label %119

110:                                              ; preds = %86
  %111 = load ptr, ptr %5, align 8, !tbaa !19
  %112 = getelementptr inbounds nuw %"struct.duckdb_miniz::mz_zip_archive", ptr %111, i32 0, i32 12
  %113 = load ptr, ptr %112, align 8, !tbaa !320
  %114 = icmp ne ptr %113, null
  br i1 %114, label %118, label %115

115:                                              ; preds = %110
  %116 = load ptr, ptr %5, align 8, !tbaa !19
  %117 = call noundef i32 @_ZN12duckdb_minizL16mz_zip_set_errorEPNS_14mz_zip_archiveENS_12mz_zip_errorE(ptr noundef %116, i32 noundef 24)
  store i32 %117, ptr %4, align 4
  store i32 1, ptr %9, align 4
  br label %135

118:                                              ; preds = %110
  br label %119

119:                                              ; preds = %118, %100
  br label %120

120:                                              ; preds = %119
  %121 = load ptr, ptr %5, align 8, !tbaa !19
  %122 = getelementptr inbounds nuw %"struct.duckdb_miniz::mz_zip_archive", ptr %121, i32 0, i32 1
  %123 = load i64, ptr %122, align 8, !tbaa !244
  %124 = load ptr, ptr %5, align 8, !tbaa !19
  %125 = getelementptr inbounds nuw %"struct.duckdb_miniz::mz_zip_archive", ptr %124, i32 0, i32 0
  store i64 %123, ptr %125, align 8, !tbaa !241
  %126 = load ptr, ptr %5, align 8, !tbaa !19
  %127 = getelementptr inbounds nuw %"struct.duckdb_miniz::mz_zip_archive", ptr %126, i32 0, i32 1
  store i64 0, ptr %127, align 8, !tbaa !244
  %128 = load ptr, ptr %5, align 8, !tbaa !19
  %129 = load ptr, ptr %5, align 8, !tbaa !19
  %130 = getelementptr inbounds nuw %"struct.duckdb_miniz::mz_zip_archive", ptr %129, i32 0, i32 15
  %131 = load ptr, ptr %130, align 8, !tbaa !227
  %132 = getelementptr inbounds nuw %"struct.duckdb_miniz::mz_zip_internal_state_tag", ptr %131, i32 0, i32 2
  call void @_ZN12duckdb_minizL18mz_zip_array_clearEPNS_14mz_zip_archiveEPNS_12mz_zip_arrayE(ptr noundef %128, ptr noundef %132)
  %133 = load ptr, ptr %5, align 8, !tbaa !19
  %134 = getelementptr inbounds nuw %"struct.duckdb_miniz::mz_zip_archive", ptr %133, i32 0, i32 3
  store i32 2, ptr %134, align 4, !tbaa !235
  store i32 1, ptr %4, align 4
  store i32 1, ptr %9, align 4
  br label %135

135:                                              ; preds = %120, %115, %97, %83, %71, %61, %52, %36, %22
  call void @llvm.lifetime.end.p0(i64 8, ptr %8) #11
  %136 = load i32, ptr %4, align 4
  ret i32 %136
}