; Function Attrs: mustprogress uwtable
define noundef range(i32 0, 2) i32 @_ZN12duckdb_miniz33mz_zip_writer_init_from_reader_v2EPNS_14mz_zip_archiveEPKcj(ptr noundef captures(address) %0, ptr noundef readnone captures(none) %1, i32 noundef %2) local_unnamed_addr #8 {
  %.not = icmp eq ptr %0, null
  br i1 %.not, label %_ZN12duckdb_minizL16mz_zip_set_errorEPNS_14mz_zip_archiveENS_12mz_zip_errorE.exit57, label %4

4:                                                ; preds = %3
  %5 = getelementptr inbounds nuw i8, ptr %0, i64 104
  %6 = load ptr, ptr %5, align 8, !tbaa !204
  %.not35 = icmp eq ptr %6, null
  br i1 %.not35, label %10, label %7

7:                                                ; preds = %4
  %8 = getelementptr inbounds nuw i8, ptr %0, i64 20
  %9 = load i32, ptr %8, align 4, !tbaa !212
  %.not36 = icmp eq i32 %9, 1
  br i1 %.not36, label %12, label %10

10:                                               ; preds = %7, %4
  %11 = getelementptr inbounds nuw i8, ptr %0, i64 28
  store i32 24, ptr %11, align 4, !tbaa !213
  br label %_ZN12duckdb_minizL16mz_zip_set_errorEPNS_14mz_zip_archiveENS_12mz_zip_errorE.exit57

12:                                               ; preds = %7
  %13 = and i32 %2, 16384
  %.not37 = icmp eq i32 %13, 0
  %.phi.trans.insert = getelementptr inbounds nuw i8, ptr %6, i64 100
  %.pre = load i32, ptr %.phi.trans.insert, align 4, !tbaa !224
  %14 = icmp eq i32 %.pre, 0
  br i1 %.not37, label %17, label %15

15:                                               ; preds = %12
  br i1 %14, label %_ZN12duckdb_minizL16mz_zip_set_errorEPNS_14mz_zip_archiveENS_12mz_zip_errorE.exit55, label %.thread

_ZN12duckdb_minizL16mz_zip_set_errorEPNS_14mz_zip_archiveENS_12mz_zip_errorE.exit55: ; preds = %15
  %16 = getelementptr inbounds nuw i8, ptr %0, i64 28
  store i32 24, ptr %16, align 4, !tbaa !213
  br label %_ZN12duckdb_minizL16mz_zip_set_errorEPNS_14mz_zip_archiveENS_12mz_zip_errorE.exit57

17:                                               ; preds = %12
  br i1 %14, label %22, label %.thread

.thread:                                          ; preds = %15, %17
  %18 = getelementptr inbounds nuw i8, ptr %0, i64 16
  %19 = load i32, ptr %18, align 8, !tbaa !230
  %20 = icmp eq i32 %19, -1
  br i1 %20, label %_ZN12duckdb_minizL16mz_zip_set_errorEPNS_14mz_zip_archiveENS_12mz_zip_errorE.exit53, label %32

_ZN12duckdb_minizL16mz_zip_set_errorEPNS_14mz_zip_archiveENS_12mz_zip_errorE.exit53: ; preds = %.thread
  %21 = getelementptr inbounds nuw i8, ptr %0, i64 28
  store i32 2, ptr %21, align 4, !tbaa !213
  br label %_ZN12duckdb_minizL16mz_zip_set_errorEPNS_14mz_zip_archiveENS_12mz_zip_errorE.exit57

22:                                               ; preds = %17
  %23 = getelementptr inbounds nuw i8, ptr %0, i64 16
  %24 = load i32, ptr %23, align 8, !tbaa !230
  %25 = icmp eq i32 %24, 65535
  br i1 %25, label %_ZN12duckdb_minizL16mz_zip_set_errorEPNS_14mz_zip_archiveENS_12mz_zip_errorE.exit51, label %27

_ZN12duckdb_minizL16mz_zip_set_errorEPNS_14mz_zip_archiveENS_12mz_zip_errorE.exit51: ; preds = %22
  %26 = getelementptr inbounds nuw i8, ptr %0, i64 28
  store i32 2, ptr %26, align 4, !tbaa !213
  br label %_ZN12duckdb_minizL16mz_zip_set_errorEPNS_14mz_zip_archiveENS_12mz_zip_errorE.exit57

27:                                               ; preds = %22
  %28 = load i64, ptr %0, align 8, !tbaa !227
  %29 = add i64 %28, -4294967220
  %30 = icmp ult i64 %29, -4294967296
  br i1 %30, label %_ZN12duckdb_minizL16mz_zip_set_errorEPNS_14mz_zip_archiveENS_12mz_zip_errorE.exit49, label %32

_ZN12duckdb_minizL16mz_zip_set_errorEPNS_14mz_zip_archiveENS_12mz_zip_errorE.exit49: ; preds = %27
  %31 = getelementptr inbounds nuw i8, ptr %0, i64 28
  store i32 3, ptr %31, align 4, !tbaa !213
  br label %_ZN12duckdb_minizL16mz_zip_set_errorEPNS_14mz_zip_archiveENS_12mz_zip_errorE.exit57

32:                                               ; preds = %27, %.thread
  %33 = getelementptr inbounds nuw i8, ptr %6, i64 112
  %34 = load ptr, ptr %33, align 8, !tbaa !298
  %.not40 = icmp eq ptr %34, null
  br i1 %.not40, label %36, label %_ZN12duckdb_minizL16mz_zip_set_errorEPNS_14mz_zip_archiveENS_12mz_zip_errorE.exit47

_ZN12duckdb_minizL16mz_zip_set_errorEPNS_14mz_zip_archiveENS_12mz_zip_errorE.exit47: ; preds = %32
  %35 = getelementptr inbounds nuw i8, ptr %0, i64 28
  store i32 24, ptr %35, align 4, !tbaa !213
  br label %_ZN12duckdb_minizL16mz_zip_set_errorEPNS_14mz_zip_archiveENS_12mz_zip_errorE.exit57

36:                                               ; preds = %32
  %37 = getelementptr inbounds nuw i8, ptr %6, i64 128
  %38 = load ptr, ptr %37, align 8, !tbaa !241
  %.not41 = icmp eq ptr %38, null
  br i1 %.not41, label %49, label %39

39:                                               ; preds = %36
  %40 = getelementptr inbounds nuw i8, ptr %0, i64 96
  %41 = load ptr, ptr %40, align 8, !tbaa !228
  %.not43 = icmp eq ptr %41, %0
  br i1 %.not43, label %43, label %_ZN12duckdb_minizL16mz_zip_set_errorEPNS_14mz_zip_archiveENS_12mz_zip_errorE.exit45

_ZN12duckdb_minizL16mz_zip_set_errorEPNS_14mz_zip_archiveENS_12mz_zip_errorE.exit45: ; preds = %39
  %42 = getelementptr inbounds nuw i8, ptr %0, i64 28
  store i32 24, ptr %42, align 4, !tbaa !213
  br label %_ZN12duckdb_minizL16mz_zip_set_errorEPNS_14mz_zip_archiveENS_12mz_zip_errorE.exit57

43:                                               ; preds = %39
  %44 = getelementptr inbounds nuw i8, ptr %6, i64 136
  %45 = load i64, ptr %44, align 8, !tbaa !242
  %46 = getelementptr inbounds nuw i8, ptr %6, i64 144
  store i64 %45, ptr %46, align 8, !tbaa !296
  %47 = getelementptr inbounds nuw i8, ptr %0, i64 80
  store ptr @_ZN12duckdb_minizL22mz_zip_heap_write_funcEPvmPKvm, ptr %47, align 8, !tbaa !294
  %48 = getelementptr inbounds nuw i8, ptr %0, i64 88
  store ptr null, ptr %48, align 8, !tbaa !240
  br label %53

49:                                               ; preds = %36
  %50 = getelementptr inbounds nuw i8, ptr %0, i64 80
  %51 = load ptr, ptr %50, align 8, !tbaa !294
  %.not42 = icmp eq ptr %51, null
  br i1 %.not42, label %_ZN12duckdb_minizL16mz_zip_set_errorEPNS_14mz_zip_archiveENS_12mz_zip_errorE.exit, label %53

_ZN12duckdb_minizL16mz_zip_set_errorEPNS_14mz_zip_archiveENS_12mz_zip_errorE.exit: ; preds = %49
  %52 = getelementptr inbounds nuw i8, ptr %0, i64 28
  store i32 24, ptr %52, align 4, !tbaa !213
  br label %_ZN12duckdb_minizL16mz_zip_set_errorEPNS_14mz_zip_archiveENS_12mz_zip_errorE.exit57

53:                                               ; preds = %43, %49
  %54 = getelementptr inbounds nuw i8, ptr %0, i64 8
  %55 = load i64, ptr %54, align 8, !tbaa !231
  store i64 %55, ptr %0, align 8, !tbaa !227
  store i64 0, ptr %54, align 8, !tbaa !231
  %56 = getelementptr inbounds nuw i8, ptr %6, i64 64
  %57 = getelementptr inbounds nuw i8, ptr %0, i64 48
  %58 = load ptr, ptr %57, align 8, !tbaa !211
  %59 = getelementptr inbounds nuw i8, ptr %0, i64 64
  %60 = load ptr, ptr %59, align 8, !tbaa !214
  %61 = load ptr, ptr %56, align 8, !tbaa !215
  tail call void %58(ptr noundef %60, ptr noundef %61)
  tail call void @llvm.memset.p0.i64(ptr noundef nonnull align 8 dereferenceable(32) %56, i8 0, i64 32, i1 false)
  store i32 2, ptr %8, align 4, !tbaa !212
  br label %_ZN12duckdb_minizL16mz_zip_set_errorEPNS_14mz_zip_archiveENS_12mz_zip_errorE.exit57

_ZN12duckdb_minizL16mz_zip_set_errorEPNS_14mz_zip_archiveENS_12mz_zip_errorE.exit57: ; preds = %10, %3, %53, %_ZN12duckdb_minizL16mz_zip_set_errorEPNS_14mz_zip_archiveENS_12mz_zip_errorE.exit, %_ZN12duckdb_minizL16mz_zip_set_errorEPNS_14mz_zip_archiveENS_12mz_zip_errorE.exit45, %_ZN12duckdb_minizL16mz_zip_set_errorEPNS_14mz_zip_archiveENS_12mz_zip_errorE.exit47, %_ZN12duckdb_minizL16mz_zip_set_errorEPNS_14mz_zip_archiveENS_12mz_zip_errorE.exit49, %_ZN12duckdb_minizL16mz_zip_set_errorEPNS_14mz_zip_archiveENS_12mz_zip_errorE.exit51, %_ZN12duckdb_minizL16mz_zip_set_errorEPNS_14mz_zip_archiveENS_12mz_zip_errorE.exit53, %_ZN12duckdb_minizL16mz_zip_set_errorEPNS_14mz_zip_archiveENS_12mz_zip_errorE.exit55
  %.0 = phi i32 [ 0, %_ZN12duckdb_minizL16mz_zip_set_errorEPNS_14mz_zip_archiveENS_12mz_zip_errorE.exit53 ], [ 0, %_ZN12duckdb_minizL16mz_zip_set_errorEPNS_14mz_zip_archiveENS_12mz_zip_errorE.exit47 ], [ 0, %_ZN12duckdb_minizL16mz_zip_set_errorEPNS_14mz_zip_archiveENS_12mz_zip_errorE.exit45 ], [ 1, %53 ], [ 0, %_ZN12duckdb_minizL16mz_zip_set_errorEPNS_14mz_zip_archiveENS_12mz_zip_errorE.exit ], [ 0, %_ZN12duckdb_minizL16mz_zip_set_errorEPNS_14mz_zip_archiveENS_12mz_zip_errorE.exit51 ], [ 0, %_ZN12duckdb_minizL16mz_zip_set_errorEPNS_14mz_zip_archiveENS_12mz_zip_errorE.exit49 ], [ 0, %_ZN12duckdb_minizL16mz_zip_set_errorEPNS_14mz_zip_archiveENS_12mz_zip_errorE.exit55 ], [ 0, %3 ], [ 0, %10 ]
  ret i32 %.0
}